target datalayout = "e-m:e-p270:32:32-p271:32:32-p272:64:64-i64:64-i128:128-f80:128-n8:16:32:64-S128"
target triple = "x86_64-pc-linux-gnu"

%struct.la_zstream = type { ptr, i64, i64, ptr, i64, i64, i32, ptr, i32, ptr, ptr, ptr }

@.str.32 = private unnamed_addr constant [30 x i8] c"Failed to clean up compressor\00", align 1

; Function Attrs: nounwind uwtable
define internal i32 @compression_end_deflate(ptr noundef %0, ptr noundef %1) #0 {
  %3 = alloca i32, align 4
  %4 = alloca ptr, align 8
  %5 = alloca ptr, align 8
  %6 = alloca ptr, align 8
  %7 = alloca i32, align 4
  store ptr %0, ptr %4, align 8
  store ptr %1, ptr %5, align 8
  %8 = load ptr, ptr %5, align 8
  %9 = getelementptr inbounds %struct.la_zstream, ptr %8, i32 0, i32 9
  %10 = load ptr, ptr %9, align 8
  store ptr %10, ptr %6, align 8
  %11 = load ptr, ptr %6, align 8
  %12 = call i32 @cm_zlib_deflateEnd(ptr noundef %11)
  store i32 %12, ptr %7, align 4
  %13 = load ptr, ptr %6, align 8
  call void @free(ptr noundef %13) #10
  %14 = load ptr, ptr %5, align 8
  %15 = getelementptr inbounds %struct.la_zstream, ptr %14, i32 0, i32 9
  store ptr null, ptr %15, align 8
  %16 = load ptr, ptr %5, align 8
  %17 = getelementptr inbounds %struct.la_zstream, ptr %16, i32 0, i32 8
  store i32 0, ptr %17, align 8
  %18 = load i32, ptr %7, align 4
  %19 = icmp ne i32 %18, 0
  br i1 %19, label %20, label %22

20:                                               ; preds = %2
  %21 = load ptr, ptr %4, align 8
  call void (ptr, i32, ptr, ...) @archive_set_error(ptr noundef %21, i32 noundef -1, ptr noundef @.str.32)
  store i32 -30, ptr %3, align 4
  br label %23

22:                                               ; preds = %2
  store i32 0, ptr %3, align 4
  br label %23

23:                                               ; preds = %22, %20
  %24 = load i32, ptr %3, align 4
  ret i32 %24
}