; Function Attrs: nounwind uwtable
define internal range(i32 -30, 1) i32 @compression_end_deflate(ptr noundef %0, ptr noundef captures(none) initializes((64, 68)) %1) #0 {
  %3 = getelementptr inbounds nuw i8, ptr %1, i64 72
  %4 = load ptr, ptr %3, align 8
  %5 = tail call i32 @cm_zlib_deflateEnd(ptr noundef %4) #18
  tail call void @free(ptr noundef %4) #18
  store ptr null, ptr %3, align 8
  %6 = getelementptr inbounds nuw i8, ptr %1, i64 64
  store i32 0, ptr %6, align 8
  %.not = icmp eq i32 %5, 0
  br i1 %.not, label %8, label %7

7:                                                ; preds = %2
  tail call void (ptr, i32, ptr, ...) @archive_set_error(ptr noundef %0, i32 noundef -1, ptr noundef nonnull @.str.32) #18
  br label %8

8:                                                ; preds = %2, %7
  %.0 = phi i32 [ -30, %7 ], [ 0, %2 ]
  ret i32 %.0
}